; Function Attrs: nounwind uwtable
define ptr @cs_idone(ptr noundef %0, ptr noundef %1, ptr noundef %2, i32 noundef %3) local_unnamed_addr #0 {
  %.not.i = icmp eq ptr %1, null
  br i1 %.not.i, label %cs_spfree.exit, label %5

5:                                                ; preds = %4
  %6 = getelementptr inbounds nuw i8, ptr %1, i64 16
  %7 = load ptr, ptr %6, align 8, !tbaa !14
  %8 = tail call ptr @cs_free(ptr noundef %7) #4
  %9 = getelementptr inbounds nuw i8, ptr %1, i64 24
  %10 = load ptr, ptr %9, align 8, !tbaa !15
  %11 = tail call ptr @cs_free(ptr noundef %10) #4
  %12 = getelementptr inbounds nuw i8, ptr %1, i64 32
  %13 = load ptr, ptr %12, align 8, !tbaa !16
  %14 = tail call ptr @cs_free(ptr noundef %13) #4
  %15 = tail call ptr @cs_free(ptr noundef nonnull %1) #4
  br label %cs_spfree.exit

cs_spfree.exit:                                   ; preds = %4, %5
  %16 = tail call ptr @cs_free(ptr noundef %2) #4
  %.not = icmp eq i32 %3, 0
  br i1 %.not, label %17, label %19

17:                                               ; preds = %cs_spfree.exit
  %18 = tail call ptr @cs_free(ptr noundef %0) #4
  br label %19

19:                                               ; preds = %cs_spfree.exit, %17
  %20 = phi ptr [ %18, %17 ], [ %0, %cs_spfree.exit ]
  ret ptr %20
}